target datalayout = "e-m:e-p270:32:32-p271:32:32-p272:64:64-i64:64-i128:128-f80:128-n8:16:32:64-S128"
target triple = "x86_64-pc-linux-gnu"

%struct.hwloc_topology = type { i32, i32, i32, ptr, ptr, i64, [20 x i32], [20 x i32], i64, i64, i32, ptr, i64, ptr, i64, [6 x %struct.hwloc_special_level_s], ptr, ptr, %struct.hwloc_binding_hooks, %struct.hwloc_topology_support, %struct.hwloc_infos_s, ptr, ptr, i32, ptr, ptr, i32, i32, ptr, i32, i32, ptr, i32, i32, i32, [5 x float], i32, ptr, ptr, i32, i32, ptr, i32, %struct.hwloc_numanode_attr_s, i32, i32, ptr, i64, i32, ptr, ptr, ptr }
%struct.hwloc_special_level_s = type { i32, ptr, ptr, ptr }
%struct.hwloc_binding_hooks = type { ptr, ptr, ptr, ptr, ptr, ptr, ptr, ptr, ptr, ptr, ptr, ptr, ptr, ptr, ptr, ptr, ptr, ptr, ptr, ptr, ptr, ptr, ptr, ptr }
%struct.hwloc_topology_support = type { ptr, ptr, ptr, ptr }
%struct.hwloc_infos_s = type { ptr, i32, i32 }
%struct.hwloc_numanode_attr_s = type { i64, i32, ptr }

; Function Attrs: nounwind willreturn memory(read) uwtable
define i32 @hwloc_get_nbobjs_by_depth(ptr noundef %0, i32 noundef %1) #1 {
  %3 = alloca i32, align 4
  %4 = alloca ptr, align 8
  %5 = alloca i32, align 4
  %6 = alloca i32, align 4
  %7 = alloca i32, align 4
  store ptr %0, ptr %4, align 8, !tbaa !3
  store i32 %1, ptr %5, align 4, !tbaa !8
  %8 = load i32, ptr %5, align 4, !tbaa !8
  %9 = load ptr, ptr %4, align 8, !tbaa !3
  %10 = getelementptr inbounds nuw %struct.hwloc_topology, ptr %9, i32 0, i32 1
  %11 = load i32, ptr %10, align 4, !tbaa !10
  %12 = icmp uge i32 %8, %11
  br i1 %12, label %13, label %28

13:                                               ; preds = %2
  call void @llvm.lifetime.start.p0(i64 4, ptr %6) #10
  %14 = load i32, ptr %5, align 4, !tbaa !8
  %15 = sub nsw i32 -3, %14
  store i32 %15, ptr %6, align 4, !tbaa !8
  %16 = load i32, ptr %6, align 4, !tbaa !8
  %17 = icmp ult i32 %16, 6
  br i1 %17, label %18, label %26

18:                                               ; preds = %13
  %19 = load ptr, ptr %4, align 8, !tbaa !3
  %20 = getelementptr inbounds nuw %struct.hwloc_topology, ptr %19, i32 0, i32 15
  %21 = load i32, ptr %6, align 4, !tbaa !8
  %22 = zext i32 %21 to i64
  %23 = getelementptr inbounds nuw [6 x %struct.hwloc_special_level_s], ptr %20, i64 0, i64 %22
  %24 = getelementptr inbounds nuw %struct.hwloc_special_level_s, ptr %23, i32 0, i32 0
  %25 = load i32, ptr %24, align 8, !tbaa !49
  store i32 %25, ptr %3, align 4
  store i32 1, ptr %7, align 4
  br label %27

26:                                               ; preds = %13
  store i32 0, ptr %3, align 4
  store i32 1, ptr %7, align 4
  br label %27

27:                                               ; preds = %26, %18
  call void @llvm.lifetime.end.p0(i64 4, ptr %6) #10
  br label %36

28:                                               ; preds = %2
  %29 = load ptr, ptr %4, align 8, !tbaa !3
  %30 = getelementptr inbounds nuw %struct.hwloc_topology, ptr %29, i32 0, i32 3
  %31 = load ptr, ptr %30, align 8, !tbaa !52
  %32 = load i32, ptr %5, align 4, !tbaa !8
  %33 = sext i32 %32 to i64
  %34 = getelementptr inbounds i32, ptr %31, i64 %33
  %35 = load i32, ptr %34, align 4, !tbaa !8
  store i32 %35, ptr %3, align 4
  br label %36

36:                                               ; preds = %28, %27
  %37 = load i32, ptr %3, align 4
  ret i32 %37
}