; Function Attrs: mustprogress nofree norecurse nosync nounwind willreturn memory(read, inaccessiblemem: none) uwtable
define i32 @hwloc_get_nbobjs_by_depth(ptr noundef readonly captures(none) %0, i32 noundef %1) local_unnamed_addr #1 {
  %3 = getelementptr inbounds nuw i8, ptr %0, i64 4
  %4 = load i32, ptr %3, align 4, !tbaa !7
  %.not = icmp ult i32 %1, %4
  br i1 %.not, label %13, label %5

5:                                                ; preds = %2
  %6 = sub nsw i32 -3, %1
  %7 = icmp ult i32 %6, 6
  br i1 %7, label %8, label %19

8:                                                ; preds = %5
  %9 = getelementptr inbounds nuw i8, ptr %0, i64 256
  %10 = zext nneg i32 %6 to i64
  %11 = getelementptr inbounds nuw [6 x %struct.hwloc_special_level_s], ptr %9, i64 0, i64 %10
  %12 = load i32, ptr %11, align 8, !tbaa !41
  br label %19

13:                                               ; preds = %2
  %14 = getelementptr inbounds nuw i8, ptr %0, i64 16
  %15 = load ptr, ptr %14, align 8, !tbaa !43
  %16 = sext i32 %1 to i64
  %17 = getelementptr inbounds i32, ptr %15, i64 %16
  %18 = load i32, ptr %17, align 4, !tbaa !3
  br label %19

19:                                               ; preds = %8, %5, %13
  %.1 = phi i32 [ %18, %13 ], [ %12, %8 ], [ 0, %5 ]
  ret i32 %.1
}